; Function Attrs: nounwind uwtable
define dso_local ptr @RelationNameGetTupleDesc(ptr noundef %0) local_unnamed_addr #0 {
  %2 = tail call ptr @stringToQualifiedNameList(ptr noundef %0, ptr noundef null) #8
  %3 = tail call ptr @makeRangeVarFromNameList(ptr noundef %2) #8
  %4 = tail call ptr @relation_openrv(ptr noundef %3, i32 noundef 1) #8
  %5 = getelementptr inbounds nuw i8, ptr %4, i64 64
  %6 = load ptr, ptr %5, align 8
  %7 = tail call ptr @CreateTupleDescCopy(ptr noundef %6) #8
  tail call void @relation_close(ptr noundef %4, i32 noundef 1) #8
  ret ptr %7
}